target datalayout = "e-m:e-p270:32:32-p271:32:32-p272:64:64-i64:64-i128:128-f80:128-n8:16:32:64-S128"
target triple = "x86_64-pc-linux-gnu"

%struct.asn1_string_st = type { i32, i32, ptr, i64 }

; Function Attrs: nounwind uwtable
define ptr @X509_time_adj_ex(ptr noundef %0, i32 noundef %1, i64 noundef %2, ptr noundef %3) #0 {
  %5 = alloca ptr, align 8
  %6 = alloca ptr, align 8
  %7 = alloca i32, align 4
  %8 = alloca i64, align 8
  %9 = alloca ptr, align 8
  %10 = alloca i64, align 8
  %11 = alloca i32, align 4
  store ptr %0, ptr %6, align 8, !tbaa !81
  store i32 %1, ptr %7, align 4, !tbaa !8
  store i64 %2, ptr %8, align 8, !tbaa !89
  store ptr %3, ptr %9, align 8, !tbaa !77
  call void @llvm.lifetime.start.p0(i64 8, ptr %10) #8
  %12 = load ptr, ptr %9, align 8, !tbaa !77
  %13 = icmp ne ptr %12, null
  br i1 %13, label %14, label %17

14:                                               ; preds = %4
  %15 = load ptr, ptr %9, align 8, !tbaa !77
  %16 = load i64, ptr %15, align 8, !tbaa !89
  store i64 %16, ptr %10, align 8, !tbaa !89
  br label %19

17:                                               ; preds = %4
  %18 = call i64 @time(ptr noundef %10) #8
  br label %19

19:                                               ; preds = %17, %14
  %20 = load ptr, ptr %6, align 8, !tbaa !81
  %21 = icmp ne ptr %20, null
  br i1 %21, label %22, label %51

22:                                               ; preds = %19
  %23 = load ptr, ptr %6, align 8, !tbaa !81
  %24 = getelementptr inbounds nuw %struct.asn1_string_st, ptr %23, i32 0, i32 3
  %25 = load i64, ptr %24, align 8, !tbaa !91
  %26 = and i64 %25, 64
  %27 = icmp eq i64 %26, 0
  br i1 %27, label %28, label %51

28:                                               ; preds = %22
  %29 = load ptr, ptr %6, align 8, !tbaa !81
  %30 = getelementptr inbounds nuw %struct.asn1_string_st, ptr %29, i32 0, i32 1
  %31 = load i32, ptr %30, align 4, !tbaa !82
  %32 = icmp eq i32 %31, 23
  br i1 %32, label %33, label %39

33:                                               ; preds = %28
  %34 = load ptr, ptr %6, align 8, !tbaa !81
  %35 = load i64, ptr %10, align 8, !tbaa !89
  %36 = load i32, ptr %7, align 4, !tbaa !8
  %37 = load i64, ptr %8, align 8, !tbaa !89
  %38 = call ptr @ASN1_UTCTIME_adj(ptr noundef %34, i64 noundef %35, i32 noundef %36, i64 noundef %37)
  store ptr %38, ptr %5, align 8
  store i32 1, ptr %11, align 4
  br label %57

39:                                               ; preds = %28
  %40 = load ptr, ptr %6, align 8, !tbaa !81
  %41 = getelementptr inbounds nuw %struct.asn1_string_st, ptr %40, i32 0, i32 1
  %42 = load i32, ptr %41, align 4, !tbaa !82
  %43 = icmp eq i32 %42, 24
  br i1 %43, label %44, label %50

44:                                               ; preds = %39
  %45 = load ptr, ptr %6, align 8, !tbaa !81
  %46 = load i64, ptr %10, align 8, !tbaa !89
  %47 = load i32, ptr %7, align 4, !tbaa !8
  %48 = load i64, ptr %8, align 8, !tbaa !89
  %49 = call ptr @ASN1_GENERALIZEDTIME_adj(ptr noundef %45, i64 noundef %46, i32 noundef %47, i64 noundef %48)
  store ptr %49, ptr %5, align 8
  store i32 1, ptr %11, align 4
  br label %57

50:                                               ; preds = %39
  br label %51

51:                                               ; preds = %50, %22, %19
  %52 = load ptr, ptr %6, align 8, !tbaa !81
  %53 = load i64, ptr %10, align 8, !tbaa !89
  %54 = load i32, ptr %7, align 4, !tbaa !8
  %55 = load i64, ptr %8, align 8, !tbaa !89
  %56 = call ptr @ASN1_TIME_adj(ptr noundef %52, i64 noundef %53, i32 noundef %54, i64 noundef %55)
  store ptr %56, ptr %5, align 8
  store i32 1, ptr %11, align 4
  br label %57

57:                                               ; preds = %51, %44, %33
  call void @llvm.lifetime.end.p0(i64 8, ptr %10) #8
  %58 = load ptr, ptr %5, align 8
  ret ptr %58
}

; Function Attrs: nounwind uwtable
define ptr @X509_time_adj(ptr noundef %0, i64 noundef %1, ptr noundef %2) #0 {
  %4 = alloca ptr, align 8
  %5 = alloca i64, align 8
  %6 = alloca ptr, align 8
  store ptr %0, ptr %4, align 8, !tbaa !81
  store i64 %1, ptr %5, align 8, !tbaa !89
  store ptr %2, ptr %6, align 8, !tbaa !77
  %7 = load ptr, ptr %4, align 8, !tbaa !81
  %8 = load i64, ptr %5, align 8, !tbaa !89
  %9 = load ptr, ptr %6, align 8, !tbaa !77
  %10 = call ptr @X509_time_adj_ex(ptr noundef %7, i32 noundef 0, i64 noundef %8, ptr noundef %9)
  ret ptr %10
}

; Function Attrs: nounwind uwtable
define i32 @X509_cmp_time(ptr noundef %0, ptr noundef %1) #0 {
  %3 = alloca i32, align 4
  %4 = alloca ptr, align 8
  %5 = alloca ptr, align 8
  %6 = alloca ptr, align 8
  %7 = alloca i32, align 4
  %8 = alloca i32, align 4
  %9 = alloca i32, align 4
  %10 = alloca i32, align 4
  %11 = alloca i8, align 1
  %12 = alloca i32, align 4
  store ptr %0, ptr %4, align 8, !tbaa !81
  store ptr %1, ptr %5, align 8, !tbaa !77
  call void @llvm.lifetime.start.p0(i64 8, ptr %6) #8
  store ptr null, ptr %6, align 8, !tbaa !81
  call void @llvm.lifetime.start.p0(i64 4, ptr %7) #8
  call void @llvm.lifetime.start.p0(i64 4, ptr %8) #8
  call void @llvm.lifetime.start.p0(i64 4, ptr %9) #8
  call void @llvm.lifetime.start.p0(i64 4, ptr %10) #8
  store i32 0, ptr %10, align 4, !tbaa !8
  call void @llvm.lifetime.start.p0(i64 1, ptr %11) #8
  store i8 90, ptr %11, align 1, !tbaa !69
  %13 = load ptr, ptr %4, align 8, !tbaa !81
  %14 = getelementptr inbounds nuw %struct.asn1_string_st, ptr %13, i32 0, i32 1
  %15 = load i32, ptr %14, align 4, !tbaa !82
  switch i32 %15, label %30 [
    i32 23, label %16
    i32 24, label %23
  ]

16:                                               ; preds = %2
  %17 = load ptr, ptr %4, align 8, !tbaa !81
  %18 = getelementptr inbounds nuw %struct.asn1_string_st, ptr %17, i32 0, i32 0
  %19 = load i32, ptr %18, align 8, !tbaa !83
  %20 = icmp ne i32 %19, 13
  br i1 %20, label %21, label %22

21:                                               ; preds = %16
  store i32 0, ptr %3, align 4
  store i32 1, ptr %12, align 4
  br label %93

22:                                               ; preds = %16
  br label %31

23:                                               ; preds = %2
  %24 = load ptr, ptr %4, align 8, !tbaa !81
  %25 = getelementptr inbounds nuw %struct.asn1_string_st, ptr %24, i32 0, i32 0
  %26 = load i32, ptr %25, align 8, !tbaa !83
  %27 = icmp ne i32 %26, 15
  br i1 %27, label %28, label %29

28:                                               ; preds = %23
  store i32 0, ptr %3, align 4
  store i32 1, ptr %12, align 4
  br label %93

29:                                               ; preds = %23
  br label %31

30:                                               ; preds = %2
  store i32 0, ptr %3, align 4
  store i32 1, ptr %12, align 4
  br label %93

31:                                               ; preds = %29, %22
  store i32 0, ptr %7, align 4, !tbaa !8
  br label %32

32:                                               ; preds = %52, %31
  %33 = load i32, ptr %7, align 4, !tbaa !8
  %34 = load ptr, ptr %4, align 8, !tbaa !81
  %35 = getelementptr inbounds nuw %struct.asn1_string_st, ptr %34, i32 0, i32 0
  %36 = load i32, ptr %35, align 8, !tbaa !83
  %37 = sub nsw i32 %36, 1
  %38 = icmp slt i32 %33, %37
  br i1 %38, label %39, label %55

39:                                               ; preds = %32
  %40 = load ptr, ptr %4, align 8, !tbaa !81
  %41 = getelementptr inbounds nuw %struct.asn1_string_st, ptr %40, i32 0, i32 2
  %42 = load ptr, ptr %41, align 8, !tbaa !84
  %43 = load i32, ptr %7, align 4, !tbaa !8
  %44 = sext i32 %43 to i64
  %45 = getelementptr inbounds i8, ptr %42, i64 %44
  %46 = load i8, ptr %45, align 1, !tbaa !69
  %47 = zext i8 %46 to i32
  %48 = call i32 @ossl_ascii_isdigit(i32 noundef %47)
  %49 = icmp ne i32 %48, 0
  br i1 %49, label %51, label %50

50:                                               ; preds = %39
  store i32 0, ptr %3, align 4
  store i32 1, ptr %12, align 4
  br label %93

51:                                               ; preds = %39
  br label %52

52:                                               ; preds = %51
  %53 = load i32, ptr %7, align 4, !tbaa !8
  %54 = add nsw i32 %53, 1
  store i32 %54, ptr %7, align 4, !tbaa !8
  br label %32, !llvm.loop !85

55:                                               ; preds = %32
  %56 = load ptr, ptr %4, align 8, !tbaa !81
  %57 = getelementptr inbounds nuw %struct.asn1_string_st, ptr %56, i32 0, i32 2
  %58 = load ptr, ptr %57, align 8, !tbaa !84
  %59 = load ptr, ptr %4, align 8, !tbaa !81
  %60 = getelementptr inbounds nuw %struct.asn1_string_st, ptr %59, i32 0, i32 0
  %61 = load i32, ptr %60, align 8, !tbaa !83
  %62 = sub nsw i32 %61, 1
  %63 = sext i32 %62 to i64
  %64 = getelementptr inbounds i8, ptr %58, i64 %63
  %65 = load i8, ptr %64, align 1, !tbaa !69
  %66 = zext i8 %65 to i32
  %67 = icmp ne i32 %66, 90
  br i1 %67, label %68, label %69

68:                                               ; preds = %55
  store i32 0, ptr %3, align 4
  store i32 1, ptr %12, align 4
  br label %93

69:                                               ; preds = %55
  %70 = load ptr, ptr %5, align 8, !tbaa !77
  %71 = call ptr @X509_time_adj(ptr noundef null, i64 noundef 0, ptr noundef %70)
  store ptr %71, ptr %6, align 8, !tbaa !81
  %72 = load ptr, ptr %6, align 8, !tbaa !81
  %73 = icmp eq ptr %72, null
  br i1 %73, label %74, label %75

74:                                               ; preds = %69
  br label %90

75:                                               ; preds = %69
  %76 = load ptr, ptr %4, align 8, !tbaa !81
  %77 = load ptr, ptr %6, align 8, !tbaa !81
  %78 = call i32 @ASN1_TIME_diff(ptr noundef %8, ptr noundef %9, ptr noundef %76, ptr noundef %77)
  %79 = icmp eq i32 %78, 0
  br i1 %79, label %80, label %81

80:                                               ; preds = %75
  br label %90

81:                                               ; preds = %75
  %82 = load i32, ptr %8, align 4, !tbaa !8
  %83 = icmp sge i32 %82, 0
  br i1 %83, label %84, label %87

84:                                               ; preds = %81
  %85 = load i32, ptr %9, align 4, !tbaa !8
  %86 = icmp sge i32 %85, 0
  br label %87

87:                                               ; preds = %84, %81
  %88 = phi i1 [ false, %81 ], [ %86, %84 ]
  %89 = select i1 %88, i32 -1, i32 1
  store i32 %89, ptr %10, align 4, !tbaa !8
  br label %90

90:                                               ; preds = %87, %80, %74
  %91 = load ptr, ptr %6, align 8, !tbaa !81
  call void @ASN1_TIME_free(ptr noundef %91)
  %92 = load i32, ptr %10, align 4, !tbaa !8
  store i32 %92, ptr %3, align 4
  store i32 1, ptr %12, align 4
  br label %93

93:                                               ; preds = %90, %68, %50, %30, %28, %21
  call void @llvm.lifetime.end.p0(i64 1, ptr %11) #8
  call void @llvm.lifetime.end.p0(i64 4, ptr %10) #8
  call void @llvm.lifetime.end.p0(i64 4, ptr %9) #8
  call void @llvm.lifetime.end.p0(i64 4, ptr %8) #8
  call void @llvm.lifetime.end.p0(i64 4, ptr %7) #8
  call void @llvm.lifetime.end.p0(i64 8, ptr %6) #8
  %94 = load i32, ptr %3, align 4
  ret i32 %94
}