; Function Attrs: nounwind uwtable
define range(i32 -1, 2) i32 @X509_cmp_time(ptr noundef %0, ptr noundef readonly captures(address_is_null) %1) local_unnamed_addr #0 {
  %3 = alloca i64, align 8
  %4 = alloca i32, align 4
  %5 = alloca i32, align 4
  call void @llvm.lifetime.start.p0(i64 4, ptr nonnull %4) #10
  call void @llvm.lifetime.start.p0(i64 4, ptr nonnull %5) #10
  %6 = getelementptr inbounds nuw i8, ptr %0, i64 4
  %7 = load i32, ptr %6, align 4, !tbaa !97
  switch i32 %7, label %.loopexit [
    i32 23, label %8
    i32 24, label %10
  ]

8:                                                ; preds = %2
  %9 = load i32, ptr %0, align 8, !tbaa !98
  %.not20 = icmp eq i32 %9, 13
  br i1 %.not20, label %.lr.ph, label %.loopexit

10:                                               ; preds = %2
  %11 = load i32, ptr %0, align 8, !tbaa !98
  %.not = icmp eq i32 %11, 15
  br i1 %.not, label %.lr.ph, label %.loopexit

.lr.ph:                                           ; preds = %8, %10
  %12 = getelementptr inbounds nuw i8, ptr %0, i64 8
  br label %18

13:                                               ; preds = %18
  %indvars.iv.next = add nuw nsw i64 %indvars.iv, 1
  %14 = load i32, ptr %0, align 8, !tbaa !98
  %15 = add nsw i32 %14, -1
  %16 = sext i32 %15 to i64
  %17 = icmp slt i64 %indvars.iv.next, %16
  br i1 %17, label %18, label %._crit_edge, !llvm.loop !99

18:                                               ; preds = %.lr.ph, %13
  %indvars.iv = phi i64 [ 0, %.lr.ph ], [ %indvars.iv.next, %13 ]
  %19 = load ptr, ptr %12, align 8, !tbaa !100
  %20 = getelementptr inbounds nuw i8, ptr %19, i64 %indvars.iv
  %21 = load i8, ptr %20, align 1, !tbaa !92
  %22 = zext i8 %21 to i32
  %23 = tail call i32 @ossl_ascii_isdigit(i32 noundef %22) #10
  %.not22 = icmp eq i32 %23, 0
  br i1 %.not22, label %.loopexit, label %13

._crit_edge:                                      ; preds = %13
  %24 = getelementptr inbounds nuw i8, ptr %0, i64 8
  %25 = load ptr, ptr %24, align 8, !tbaa !100
  %26 = sext i32 %15 to i64
  %27 = getelementptr inbounds i8, ptr %25, i64 %26
  %28 = load i8, ptr %27, align 1, !tbaa !92
  %.not21 = icmp eq i8 %28, 90
  br i1 %.not21, label %29, label %.loopexit

29:                                               ; preds = %._crit_edge
  call void @llvm.lifetime.start.p0(i64 8, ptr nonnull %3) #10
  %.not.i.i = icmp eq ptr %1, null
  br i1 %.not.i.i, label %32, label %30

30:                                               ; preds = %29
  %31 = load i64, ptr %1, align 8, !tbaa !101
  store i64 %31, ptr %3, align 8, !tbaa !101
  br label %X509_time_adj.exit

32:                                               ; preds = %29
  %33 = call i64 @time(ptr noundef nonnull %3) #10
  %.pre = load i64, ptr %3, align 8, !tbaa !101
  br label %X509_time_adj.exit

X509_time_adj.exit:                               ; preds = %30, %32
  %34 = phi i64 [ %31, %30 ], [ %.pre, %32 ]
  %35 = call ptr @ASN1_TIME_adj(ptr noundef null, i64 noundef %34, i32 noundef 0, i64 noundef 0) #10
  call void @llvm.lifetime.end.p0(i64 8, ptr nonnull %3) #10
  %36 = icmp eq ptr %35, null
  br i1 %36, label %47, label %37

37:                                               ; preds = %X509_time_adj.exit
  %38 = call i32 @ASN1_TIME_diff(ptr noundef nonnull %4, ptr noundef nonnull %5, ptr noundef nonnull %0, ptr noundef nonnull %35) #10
  %39 = icmp eq i32 %38, 0
  br i1 %39, label %47, label %40

40:                                               ; preds = %37
  %41 = load i32, ptr %4, align 4, !tbaa !54
  %42 = icmp sgt i32 %41, -1
  %43 = load i32, ptr %5, align 4
  %44 = icmp sgt i32 %43, -1
  %45 = select i1 %42, i1 %44, i1 false
  %46 = select i1 %45, i32 -1, i32 1
  br label %47

47:                                               ; preds = %37, %X509_time_adj.exit, %40
  %.016 = phi i32 [ 0, %X509_time_adj.exit ], [ 0, %37 ], [ %46, %40 ]
  call void @ASN1_TIME_free(ptr noundef %35) #10
  br label %.loopexit

.loopexit:                                        ; preds = %18, %._crit_edge, %2, %10, %8, %47
  %.0 = phi i32 [ %.016, %47 ], [ 0, %8 ], [ 0, %10 ], [ 0, %2 ], [ 0, %._crit_edge ], [ 0, %18 ]
  call void @llvm.lifetime.end.p0(i64 4, ptr nonnull %5) #10
  call void @llvm.lifetime.end.p0(i64 4, ptr nonnull %4) #10
  ret i32 %.0
}